; Function Attrs: nofree norecurse nosync nounwind memory(write, argmem: readwrite, inaccessiblemem: none) uwtable
define dso_local i64 @FSE_writeNCount(ptr noundef %0, i64 noundef %1, ptr noundef readonly captures(none) %2, i32 noundef %3, i32 noundef %4) local_unnamed_addr #2 {
  %6 = icmp ugt i32 %4, 12
  br i1 %6, label %17, label %7

7:                                                ; preds = %5
  %8 = icmp samesign ult i32 %4, 5
  br i1 %8, label %17, label %.sink.split

.sink.split:                                      ; preds = %7
  %9 = add i32 %3, 1
  %10 = mul i32 %9, %4
  %11 = add i32 %10, 6
  %12 = lshr i32 %11, 3
  %13 = add nuw nsw i32 %12, 3
  %.not.i = icmp eq i32 %3, 0
  %narrow.i = select i1 %.not.i, i32 512, i32 %13
  %14 = zext nneg i32 %narrow.i to i64
  %15 = icmp uge i64 %1, %14
  %. = zext i1 %15 to i32
  %16 = tail call fastcc i64 @FSE_writeNCount_generic(ptr noundef %0, i64 noundef %1, ptr noundef %2, i32 noundef %3, i32 noundef %4, i32 noundef %.)
  br label %17

17:                                               ; preds = %.sink.split, %7, %5
  %.0 = phi i64 [ -44, %5 ], [ -1, %7 ], [ %16, %.sink.split ]
  ret i64 %.0
}